; Function Attrs: nounwind uwtable
define dso_local ptr @defragStreamConsumerPendingEntry(ptr noundef readonly captures(none) %0, ptr noundef readonly captures(none) %1) #0 {
  %3 = alloca ptr, align 8
  %4 = getelementptr inbounds nuw i8, ptr %0, i64 24
  %5 = load ptr, ptr %4, align 8, !tbaa !110
  %6 = getelementptr inbounds nuw i8, ptr %1, i64 8
  %7 = load ptr, ptr %6, align 8, !tbaa !117
  %8 = getelementptr inbounds nuw i8, ptr %5, i64 16
  store ptr %7, ptr %8, align 8, !tbaa !121
  %9 = tail call i32 @je_get_defrag_hint(ptr noundef %5) #10
  %.not.i = icmp eq i32 %9, 0
  br i1 %.not.i, label %activeDefragAlloc.exit.thread, label %activeDefragAlloc.exit

activeDefragAlloc.exit.thread:                    ; preds = %2
  %10 = load i64, ptr getelementptr inbounds nuw (i8, ptr @server, i64 2592), align 8, !tbaa !5
  %11 = add nsw i64 %10, 1
  store i64 %11, ptr getelementptr inbounds nuw (i8, ptr @server, i64 2592), align 8, !tbaa !5
  br label %29

activeDefragAlloc.exit:                           ; preds = %2
  %12 = tail call i64 @je_malloc_usable_size(ptr noundef nonnull %5) #10
  %13 = tail call noalias ptr @zmalloc_no_tcache(i64 noundef %12) #10
  tail call void @llvm.memcpy.p0.p0.i64(ptr align 1 %13, ptr nonnull align 1 %5, i64 %12, i1 false)
  tail call void @zfree_no_tcache(ptr noundef nonnull %5) #10
  %14 = load i64, ptr getelementptr inbounds nuw (i8, ptr @server, i64 2584), align 8, !tbaa !38
  %15 = add nsw i64 %14, 1
  store i64 %15, ptr getelementptr inbounds nuw (i8, ptr @server, i64 2584), align 8, !tbaa !38
  %.not = icmp eq ptr %13, null
  br i1 %.not, label %29, label %16

16:                                               ; preds = %activeDefragAlloc.exit
  call void @llvm.lifetime.start.p0(i64 8, ptr nonnull %3) #10
  %17 = load ptr, ptr %1, align 8, !tbaa !123
  %18 = getelementptr inbounds nuw i8, ptr %17, i64 24
  %19 = load ptr, ptr %18, align 8, !tbaa !124
  %20 = getelementptr inbounds nuw i8, ptr %0, i64 16
  %21 = load ptr, ptr %20, align 8, !tbaa !113
  %22 = getelementptr inbounds nuw i8, ptr %0, i64 32
  %23 = load i64, ptr %22, align 8, !tbaa !112
  %24 = call i32 @raxInsert(ptr noundef %19, ptr noundef %21, i64 noundef %23, ptr noundef nonnull %13, ptr noundef nonnull %3) #10
  %25 = load ptr, ptr %3, align 8, !tbaa !126
  %26 = icmp eq ptr %25, %5
  br i1 %26, label %28, label %27, !prof !58

27:                                               ; preds = %16
  call void @_serverAssert(ptr noundef nonnull @.str.15, ptr noundef nonnull @.str, i32 noundef 674) #10
  call void @abort() #11
  unreachable

28:                                               ; preds = %16
  call void @llvm.lifetime.end.p0(i64 8, ptr nonnull %3) #10
  br label %29

29:                                               ; preds = %activeDefragAlloc.exit.thread, %28, %activeDefragAlloc.exit
  %.0.i14 = phi ptr [ null, %activeDefragAlloc.exit.thread ], [ %13, %28 ], [ null, %activeDefragAlloc.exit ]
  ret ptr %.0.i14
}